; Function Attrs: nounwind uwtable
define internal noundef i32 @str_upper(ptr noundef %0) #0 {
  %2 = alloca i64, align 8
  %3 = alloca %struct.luaL_Buffer, align 8
  call void @llvm.lifetime.start.p0(i64 8, ptr nonnull %2) #10
  call void @llvm.lifetime.start.p0(i64 8216, ptr nonnull %3) #10
  %4 = call ptr @luaL_checklstring(ptr noundef %0, i32 noundef 1, ptr noundef nonnull %2) #10
  call void @luaL_buffinit(ptr noundef %0, ptr noundef nonnull %3) #10
  %5 = load i64, ptr %2, align 8, !tbaa !4
  %.not = icmp eq i64 %5, 0
  br i1 %.not, label %._crit_edge, label %.lr.ph

.lr.ph:                                           ; preds = %1
  %6 = getelementptr inbounds nuw i8, ptr %3, i64 8216
  br label %7

7:                                                ; preds = %.lr.ph, %12
  %.07 = phi i64 [ 0, %.lr.ph ], [ %23, %12 ]
  %8 = load ptr, ptr %3, align 8, !tbaa !11
  %9 = icmp ult ptr %8, %6
  br i1 %9, label %12, label %10

10:                                               ; preds = %7
  %11 = call ptr @luaL_prepbuffer(ptr noundef nonnull %3) #10
  %.pre = load ptr, ptr %3, align 8, !tbaa !11
  br label %12

12:                                               ; preds = %10, %7
  %13 = phi ptr [ %.pre, %10 ], [ %8, %7 ]
  %14 = tail call ptr @__ctype_toupper_loc() #11
  %15 = load ptr, ptr %14, align 8, !tbaa !35
  %16 = getelementptr inbounds nuw i8, ptr %4, i64 %.07
  %17 = load i8, ptr %16, align 1, !tbaa !8
  %18 = zext i8 %17 to i64
  %19 = getelementptr inbounds nuw i32, ptr %15, i64 %18
  %20 = load i32, ptr %19, align 4, !tbaa !37
  %21 = trunc i32 %20 to i8
  %22 = getelementptr inbounds nuw i8, ptr %13, i64 1
  store ptr %22, ptr %3, align 8, !tbaa !11
  store i8 %21, ptr %13, align 1, !tbaa !8
  %23 = add nuw i64 %.07, 1
  %24 = load i64, ptr %2, align 8, !tbaa !4
  %25 = icmp ult i64 %23, %24
  br i1 %25, label %7, label %._crit_edge, !llvm.loop !41

._crit_edge:                                      ; preds = %12, %1
  call void @luaL_pushresult(ptr noundef nonnull %3) #10
  call void @llvm.lifetime.end.p0(i64 8216, ptr nonnull %3) #10
  call void @llvm.lifetime.end.p0(i64 8, ptr nonnull %2) #10
  ret i32 1
}